; Function Attrs: nounwind uwtable
define void @lv_canvas_set_draw_buf(ptr noundef %0, ptr noundef %1) local_unnamed_addr #1 {
  %.not = icmp eq ptr %1, null
  br i1 %.not, label %.preheader, label %3

.preheader:                                       ; preds = %2, %.preheader
  br label %.preheader

3:                                                ; preds = %2
  %4 = getelementptr inbounds nuw i8, ptr %0, i64 120
  store ptr %1, ptr %4, align 8, !tbaa !3
  %5 = tail call ptr @lv_image_get_src(ptr noundef %0) #5
  %.not11 = icmp eq ptr %5, null
  br i1 %.not11, label %7, label %6

6:                                                ; preds = %3
  tail call void @lv_image_cache_drop(ptr noundef nonnull %5) #5
  br label %7

7:                                                ; preds = %6, %3
  tail call void @lv_image_set_src(ptr noundef nonnull %0, ptr noundef nonnull %1) #5
  tail call void @lv_image_cache_drop(ptr noundef nonnull %1) #5
  ret void
}